; Function Attrs: mustprogress uwtable
define { ptr, ptr } @_Z7ftp2fnsB5cxx11iiPK8t_filenm(i32 noundef %0, i32 noundef %1, ptr nocapture noundef readonly %2) local_unnamed_addr #0 {
  %4 = icmp sgt i32 %1, 0
  br i1 %4, label %.lr.ph.preheader, label %._crit_edge

.lr.ph.preheader:                                 ; preds = %3
  %wide.trip.count = zext nneg i32 %1 to i64
  br label %.lr.ph

5:                                                ; preds = %.lr.ph
  %indvars.iv.next = add nuw nsw i64 %indvars.iv, 1
  %exitcond.not = icmp eq i64 %indvars.iv.next, %wide.trip.count
  br i1 %exitcond.not, label %._crit_edge, label %.lr.ph, !llvm.loop !8

.lr.ph:                                           ; preds = %.lr.ph.preheader, %5
  %indvars.iv = phi i64 [ 0, %.lr.ph.preheader ], [ %indvars.iv.next, %5 ]
  %6 = getelementptr inbounds %struct.t_filenm, ptr %2, i64 %indvars.iv
  %7 = load i32, ptr %6, align 8
  %8 = icmp eq i32 %7, %0
  br i1 %8, label %9, label %5

9:                                                ; preds = %.lr.ph
  %10 = getelementptr inbounds i8, ptr %6, i64 32
  %11 = load ptr, ptr %10, align 8
  %12 = getelementptr inbounds i8, ptr %6, i64 40
  %13 = load ptr, ptr %12, align 8
  %14 = ptrtoint ptr %13 to i64
  %15 = ptrtoint ptr %11 to i64
  %16 = sub i64 %14, %15
  %17 = getelementptr inbounds i8, ptr %11, i64 %16
  %.fca.0.insert = insertvalue { ptr, ptr } poison, ptr %11, 0
  %.fca.1.insert = insertvalue { ptr, ptr } %.fca.0.insert, ptr %17, 1
  ret { ptr, ptr } %.fca.1.insert

._crit_edge:                                      ; preds = %5, %3
  tail call void @_ZN3gmx8internal13assertHandlerEPKcS2_S2_S2_i(ptr noundef nonnull @.str.3, ptr noundef nonnull @.str.7, ptr noundef nonnull @"__PRETTY_FUNCTION__._ZZ7ftp2fnsB5cxx11iiPK8t_filenmENK3$_0clEv", ptr noundef nonnull @.str.2, i32 noundef 147) #11
  unreachable
}